(lp0
S'days_host'
p1
aS'num_amenities'
p2
aS'bedrooms'
p3
aS'beds'
p4
aS'neighbourhood_binary_0'
p5
aS'neighbourhood_binary_1'
p6
aS'neighbourhood_binary_2'
p7
aS'neighbourhood_binary_3'
p8
aS'neighbourhood_binary_4'
p9
aS'neighbourhood_binary_5'
p10
aS'neighbourhood_binary_6'
p11
aS'neighbourhood_binary_7'
p12
aS'neighbourhood_binary_8'
p13
aS'bathrooms'
p14
aS'accommodates'
p15
a.