(lp0
S'days_host'
p1
aS'num_amenities'
p2
aS'bedrooms'
p3
aS'beds'
p4
aS'neighbourhood_binary_0'
p5
aS'neighbourhood_binary_1'
p6
aS'neighbourhood_binary_2'
p7
aS'neighbourhood_binary_3'
p8
aS'neighbourhood_binary_4'
p9
aS'neighbourhood_binary_5'
p10
aS'neighbourhood_binary_6'
p11
aS'neighbourhood_binary_7'
p12
aS'neighbourhood_binary_8'
p13
aS'bathrooms'
p14
aS'accommodates'
p15
aS'bed_type'
p16
aS'Airbed'
p17
aS'Couch'
p18
aS'Futon'
p19
aS'Pull-out Sofa'
p20
aS'Real Bed'
p21
aS'room_type'
p22
aS'Entire home/apt'
p23
aS'Private room'
p24
aS'Shared room'
p25
aS'property_binary_encoded_0'
p26
aS'property_binary_encoded_1'
p27
aS'property_binary_encoded_2'
p28
aS'property_binary_encoded_3'
p29
aS'property_binary_encoded_4'
p30
a.