(lp0
S'days_host'
p1
aS'num_amenities'
p2
aS'bedrooms'
p3
aS'beds'
p4
aS'neighbourhood_binary_0'
p5
aS'neighbourhood_binary_1'
p6
aS'neighbourhood_binary_2'
p7
aS'neighbourhood_binary_3'
p8
aS'neighbourhood_binary_4'
p9
aS'neighbourhood_binary_5'
p10
aS'neighbourhood_binary_6'
p11
aS'neighbourhood_binary_7'
p12
aS'neighbourhood_binary_8'
p13
aS'bathrooms'
p14
aS'accommodates'
p15
aS'bed_type'
p16
aS'Airbed'
p17
aS'Couch'
p18
aS'Futon'
p19
aS'Pull-out Sofa'
p20
aS'Real Bed'
p21
aS'room_type'
p22
aS'Entire home/apt'
p23
aS'Private room'
p24
aS'Shared room'
p25
aS'property_sum_encoded_0'
p26
aS'property_sum_encoded_1'
p27
aS'property_sum_encoded_2'
p28
aS'property_sum_encoded_3'
p29
aS'property_sum_encoded_4'
p30
aS'property_sum_encoded_5'
p31
aS'property_sum_encoded_6'
p32
aS'property_sum_encoded_7'
p33
aS'property_sum_encoded_8'
p34
aS'property_sum_encoded_9'
p35
aS'property_sum_encoded_10'
p36
aS'property_sum_encoded_11'
p37
aS'property_sum_encoded_12'
p38
aS'property_sum_encoded_13'
p39
aS'property_sum_encoded_14'
p40
aS'property_sum_encoded_15'
p41
aS'property_sum_encoded_16'
p42
aS'property_sum_encoded_17'
p43
aS'property_sum_encoded_18'
p44
aS'property_sum_encoded_19'
p45
aS'property_sum_encoded_20'
p46
aS'property_sum_encoded_21'
p47
aS'property_sum_encoded_22'
p48
aS'property_sum_encoded_23'
p49
aS'property_sum_encoded_24'
p50
aS'property_sum_encoded_25'
p51
a.