(lp0
S'num_amenities'
p1
aS'bedrooms'
p2
aS'beds'
p3
aS'neighbourhood_binary_0'
p4
aS'neighbourhood_binary_1'
p5
aS'neighbourhood_binary_2'
p6
aS'neighbourhood_binary_3'
p7
aS'neighbourhood_binary_4'
p8
aS'neighbourhood_binary_5'
p9
aS'neighbourhood_binary_6'
p10
aS'neighbourhood_binary_7'
p11
aS'neighbourhood_binary_8'
p12
aS'bathrooms'
p13
aS'accommodates'
p14
aS'bed_type'
p15
aS'Airbed'
p16
aS'Couch'
p17
aS'Futon'
p18
aS'Pull-out Sofa'
p19
aS'Real Bed'
p20
aS'room_type'
p21
aS'Entire home/apt'
p22
aS'Private room'
p23
aS'Shared room'
p24
aS'property_binary_encoded_0'
p25
aS'property_binary_encoded_1'
p26
aS'property_binary_encoded_2'
p27
aS'property_binary_encoded_3'
p28
aS'property_binary_encoded_4'
p29
a.