(lp0
S'bedrooms'
p1
aS'beds'
p2
aS'bathrooms'
p3
aS'accommodates'
p4
aS'neighbourhood_binary_0'
p5
aS'neighbourhood_binary_1'
p6
aS'neighbourhood_binary_2'
p7
aS'neighbourhood_binary_3'
p8
aS'neighbourhood_binary_4'
p9
aS'neighbourhood_binary_5'
p10
aS'neighbourhood_binary_6'
p11
aS'neighbourhood_binary_7'
p12
aS'neighbourhood_binary_8'
p13
aS'bed_type'
p14
aS'Airbed'
p15
aS'Couch'
p16
aS'Futon'
p17
aS'Pull-out Sofa'
p18
aS'Real Bed'
p19
aS'room_type'
p20
aS'Shared room'
p21
aS'Private room'
p22
aS'Entire home/apt'
p23
aS'property_binary_encoded_0'
p24
aS'property_binary_encoded_1'
p25
aS'property_binary_encoded_2'
p26
aS'property_binary_encoded_3'
p27
aS'property_binary_encoded_4'
p28
a.