(dp0
Fnan
I0
sS'Sunland'
p1
I333
sS'Fenway'
p2
I118
sS'Shared room'
p3
I0
sS'East Boston'
p4
I94
sS'Victory Heights'
p5
I362
sS'West Hollywood'
p6
I377
sS'Loyal Heights'
p7
I199
sS'Bernal Heights'
p8
I29
sS'South of Market'
p9
I325
sS'Playa Vista'
p10
I268
sS'Fremont'
p11
I121
sS'Signal Hill'
p12
I311
sS'Futon'
p13
I2
sS'Spring Valley, Palisades, Wesley Heights, Foxhall Crescent, Foxhall Village, Georgetown Reservoir'
p14
I329
sS'Willowbrook'
p15
I391
sS'Cedar Park'
p16
I55
sS'Los Feliz'
p17
I197
sS'Westchester'
p18
I383
sS'Charlestown'
p19
I60
sS'East Queen Anne'
p20
I100
sS'La Ca\xc3\xb1ada Flintridge'
p21
I174
sS'Glendora'
p22
I131
sS'Industry'
p23
I163
sS'Phinney Ridge'
p24
I261
sS'Roslindale'
p25
I288
sS'Lopez/Kagel Canyons'
p26
I196
sS'Leather District'
p27
I189
sS'Bed & Breakfast'
p28
I2
sS'North Admiral'
p29
I232
sS'El Monte'
p30
I106
sS'Santa Monica'
p31
I300
sS'Beverly Crest'
p32
I30
sS'Georgetown, Burleith/Hillandale'
p33
I127
sS'Eastland Gardens, Kenilworth'
p34
I103
sS'Bellflower'
p35
I27
sS'Watts'
p36
I369
sS'Temple City'
p37
I338
sS'West End, Foggy Bottom, GWU'
p38
I375
sS'Golden Gate Park'
p39
I132
sS'Palos Verdes Estates'
p40
I256
sS'Crown Hill'
p41
I76
sS'Burbank'
p42
I46
sS'Takoma, Brightwood, Manor Park'
p43
I336
sS'Silver Lake'
p44
I312
sS'Monrovia'
p45
I222
sS'Woodridge, Fort Lincoln, Gateway'
p46
I397
sS'South Whittier'
p47
I324
sS'Manhattan Beach'
p48
I205
sS'Twin Peaks'
p49
I345
sS'Southeast Magnolia'
p50
I327
sS'Douglas, Shipley Terrace'
p51
I85
sS'Venice'
p52
I356
sS'Pasadena'
p53
I260
sS'Tent'
p54
I20
sS'West Queen Anne'
p55
I379
sS'Treehouse'
p56
I24
sS'Hut'
p57
I13
sS'Vernon'
p58
I360
sS'Visitacion Valley'
p59
I366
sS'West Los Angeles'
p60
I378
sS'Brighton'
p61
I39
sS'Hermosa Beach'
p62
I150
sS'Historic Anacostia'
p63
I153
sS'Roxbury'
p64
I290
sS'Diamond Heights'
p65
I83
sS'Studio City'
p66
I331
sS'Calabasas'
p67
I47
sS'Western Addition'
p68
I384
sS'Monterey Park'
p69
I225
sS'Seward Park'
p70
I305
sS'Industrial District'
p71
I162
sS'Canoga Park'
p72
I48
sS'Sawtelle'
p73
I301
sS'Granada Hills'
p74
I134
sS'Rainier Beach'
p75
I276
sS'Del Aire'
p76
I80
sS'Valley Village'
p77
I354
sS'Lamont Riggs, Queens Chapel, Fort Totten, Pleasant Hill'
p78
I184
sS'Broadview'
p79
I41
sS'Deanwood, Burrville, Grant Park, Lincoln Heights, Fairmont Heights'
p80
I79
sS'South San Gabriel'
p81
I323
sS'Sun Valley'
p82
I332
sS'West Roxbury'
p83
I380
sS'View Ridge'
p84
I364
sS'Encino'
p85
I111
sS'Paramount'
p86
I258
sS'Sherman Oaks'
p87
I309
sS'Potrero Hill'
p88
I273
sS'Eagle Rock'
p89
I93
sS'Fairfax Village, Naylor Gardens, Hillcrest, Summit Park'
p90
I115
sS'Baldwin Hills/Crenshaw'
p91
I20
sS'Mayfair, Hillbrook, Mahaning Heights'
p92
I213
sS'Sierra Madre'
p93
I310
sS'Columbia City'
p94
I69
sS'East Hollywood'
p95
I96
sS'Central-Alameda'
p96
I57
sS'Compton'
p97
I72
sS'Brookland, Brentwood, Langdon'
p98
I44
sS'Sepulveda Basin'
p99
I304
sS'Topanga'
p100
I340
sS'Mid-Beacon Hill'
p101
I216
sS'Lincoln Heights'
p102
I192
sS'Southeast Antelope Valley'
p103
I326
sS'North Whittier'
p104
I244
sS'Presidio'
p105
I274
sS'Pinehurst'
p106
I266
sS'Tipi'
p107
I21
sS'La Verne'
p108
I179
sS'Longwood Medical Area'
p109
I195
sS'Redondo Beach'
p110
I281
sS'Century City'
p111
I58
sS'Westlake Village'
p112
I386
sS'Windsor Square'
p113
I393
sS'Rancho Park'
p114
I279
sS'Outer Richmond'
p115
I250
sS'Near Southeast, Navy Yard'
p116
I229
sS'Jefferson Park'
p117
I171
sS'Pico Rivera'
p118
I262
sS'Lakeshore'
p119
I182
sS'Gatewood'
p120
I124
sS'Beverly Grove'
p121
I31
sS'Pico-Robertson'
p122
I263
sS'Dorm'
p123
I10
sS'Historic South-Central'
p124
I154
sS'South Park'
p125
I321
sS'Allston'
p126
I5
sS'Glassell Park'
p127
I128
sS'Cerritos'
p128
I59
sS'East San Gabriel'
p129
I101
sS'Valley Glen'
p130
I353
sS'Reseda'
p131
I282
sS'Hawthorne, Barnaby Woods, Chevy Chase'
p132
I149
sS'Vermont Square'
p133
I358
sS'View Park-Windsor Hills'
p134
I363
sS'Pacoima'
p135
I254
sS'Belltown'
p136
I28
sS'Cheviot Hills'
p137
I63
sS'San Marino'
p138
I295
sS'Hancock Park'
p139
I142
sS'Hyde Park'
p140
I161
sS'Private room'
p141
I1
sS'Huntington Park'
p142
I160
sS'Rosemead'
p143
I287
sS'Azusa'
p144
I18
sS'Rowland Heights'
p145
I289
sS'Chalet'
p146
I8
sS'Dorchester'
p147
I84
sS'Claremont'
p148
I66
sS'Hawthorne'
p149
I148
sS'Downtown'
p150
I87
sS'Del Rey'
p151
I81
sS'Adams-Normandie'
p152
I1
sS'Camper/RV'
p153
I6
sS'Highland Park'
p154
I152
sS'Commerce'
p155
I71
sS'Seaview'
p156
I303
sS'Diamond Bar'
p157
I82
sS'Exposition Park'
p158
I113
sS'Haight Ashbury'
p159
I140
sS'Green Lake'
p160
I135
sS'Hacienda Heights'
p161
I139
sS'Boyle Heights'
p162
I35
sS'Hollywood Hills West'
p163
I158
sS'Outer Mission'
p164
I249
sS'Wedgwood'
p165
I370
sS'Arlington Heights'
p166
I12
sS'South Boston Waterfront'
p167
I315
sS'Norwalk'
p168
I246
sS'Alhambra'
p169
I3
sS'Minor'
p170
I219
sS'Toluca Lake'
p171
I339
sS'Vermont Vista'
p172
I359
sS'Hollywood'
p173
I156
sS'East Compton'
p174
I95
sS'East La Mirada'
p175
I97
sS'Arbor Heights'
p176
I9
sS'Rancho Palos Verdes'
p177
I278
sS'Meadowbrook'
p178
I215
sS'South End'
p179
I319
sS'Echo Park'
p180
I104
sS'Mission Hill'
p181
I221
sS'West End'
p182
I374
sS'Sheridan, Barry Farm, Buena Vista'
p183
I308
sS'Roosevelt'
p184
I286
sS'Avocado Heights'
p185
I17
sS'Maple Leaf'
p186
I207
sS'Alki'
p187
I4
sS'Seacliff'
p188
I302
sS'Panorama City'
p189
I257
sS'Jamaica Plain'
p190
I170
sS'Harbor Gateway'
p191
I144
sS'Tarzana'
p192
I337
sS'Congress Heights, Bellevue, Washington Highlands'
p193
I73
sS'Pull-out Sofa'
p194
I3
sS'Lakewood'
p195
I183
sS'Other'
p196
I17
sS'Downey'
p197
I86
sS'La Puente'
p198
I178
sS'Torrance'
p199
I341
sS'Howard University, Le Droit Park, Cardozo/Shaw'
p200
I159
sS'Dunlap'
p201
I91
sS'El Segundo'
p202
I107
sS'Bitter Lake'
p203
I34
sS'Tujunga'
p204
I343
sS'Downtown, Chinatown, Penn Quarters, Mount Vernon Square, North Capitol Street'
p205
I88
sS'Twining, Fairlawn, Randle Highlands, Penn Branch, Fort Davis Park, Fort Dupont'
p206
I346
sS'West of Twin Peaks'
p207
I382
sS'El Sereno'
p208
I108
sS'Broadway-Manchester'
p209
I43
sS'East Los Angeles'
p210
I98
sS'Beverly Hills'
p211
I32
sS'Columbia Heights, Mt. Pleasant, Pleasant Plains, Park View'
p212
I70
sS'Russian Hill'
p213
I292
sS'Universal City'
p214
I349
sS'Leschi'
p215
I191
sS'Angeles Crest'
p216
I8
sS'Santa Fe Springs'
p217
I299
sS'Eastlake'
p218
I102
sS'Dupont Circle, Connecticut Avenue/K Street'
p219
I92
sS'Entire home/apt'
p220
I2
sS'Yurt'
p221
I26
sS'West Woodland'
p222
I381
sS'North Queen Anne'
p223
I243
sS'Portage Bay'
p224
I271
sS'University District'
p225
I350
sS'Whittier'
p226
I389
sS'Porter Ranch'
p227
I272
sS'Outer Sunset'
p228
I251
sS'Santa Clarita'
p229
I298
sS'North Delridge'
p230
I238
sS'Treasure Island/YBI'
p231
I342
sS'Downtown/Civic Center'
p232
I89
sS'Villa'
p233
I25
sS'Westlake'
p234
I385
sS'Duarte'
p235
I90
sS'Valinda'
p236
I352
sS'House'
p237
I12
sS'Broadway'
p238
I42
sS'Madrona'
p239
I202
sS'Kalorama Heights, Adams Morgan, Lanier Heights'
p240
I172
sS'Brightwood Park, Crestwood, Petworth'
p241
I40
sS'Interbay'
p242
I167
sS'Pico-Union'
p243
I264
sS'Fauntleroy'
p244
I117
sS'Sunset Hill'
p245
I334
sS'First Hill'
p246
I120
sS'Playa del Rey'
p247
I269
sS'Bungalow'
p248
I4
sS'San Pedro'
p249
I297
sS'Laurelhurst'
p250
I186
sS'Griffith Park'
p251
I138
sS'Inner Sunset'
p252
I166
sS'South Beacon Hill'
p253
I313
sS'Charter Oak'
p254
I61
sS'La Mirada'
p255
I177
sS'West Adams'
p256
I371
sS'San Pasqual'
p257
I296
sS'Apartment'
p258
I1
sS'Inner Richmond'
p259
I165
sS'Montecito Heights'
p260
I224
sS'Lawndale'
p261
I187
sS'Atwater Village'
p262
I16
sS'Pioneer Square'
p263
I267
sS'Mid-Wilshire'
p264
I218
sS'Cabin'
p265
I5
sS'Green Meadows'
p266
I136
sS'Train'
p267
I23
sS'Edgewood, Bloomingdale, Truxton Circle, Eckington'
p268
I105
sS'Adams'
p269
I0
sS'Nob Hill'
p270
I230
sS'Cathedral Heights, McLean Gardens, Glover Park'
p271
I54
sS'North Beach'
p272
I233
sS'Shaw, Logan Circle'
p273
I307
sS'Condominium'
p274
I9
sS'Holly Park'
p275
I155
sS'Carthay'
p276
I52
sS'Harbor City'
p277
I143
sS'Vincent'
p278
I365
sS'Fairfax'
p279
I114
sS'Parking Space'
p280
I18
sS'Unincorporated Santa Monica Mountains'
p281
I347
sS'Roxhill'
p282
I291
sS'East Pasadena'
p283
I99
sS'Manchester Square'
p284
I204
sS'Lynwood'
p285
I200
sS'Lighthouse'
p286
I15
sS'North Hollywood'
p287
I241
sS'Ravenna'
p288
I280
sS'Inglewood'
p289
I164
sS'Earth House'
p290
I11
sS'Athens'
p291
I14
sS'Central Business District'
p292
I56
sS'Couch'
p293
I1
sS'Matthews Beach'
p294
I212
sS'Georgetown'
p295
I126
sS'Leimert Park'
p296
I190
sS'Tujunga Canyons'
p297
I344
sS'University Park'
p298
I351
sS'Excelsior'
p299
I112
sS'Plane'
p300
I19
sS'Island'
p301
I14
sS'Southwest Employment Area, Southwest/Waterfront, Fort McNair, Buzzard Point'
p302
I328
sS'Glendale'
p303
I130
sS'Ocean View'
p304
I247
sS'Bel-Air'
p305
I25
sS'Wallingford'
p306
I367
sS'North Beacon Hill'
p307
I235
sS'Elysian Valley'
p308
I110
sS'Elysian Park'
p309
I109
sS'South Delridge'
p310
I316
sS'Friendship Heights, American University Park, Tenleytown'
p311
I122
sS'Townhouse'
p312
I22
sS'West Carson'
p313
I372
sS'Financial District'
p314
I119
sS'Arleta'
p315
I11
sS'Marina del Rey'
p316
I210
sS'South El Monte'
p317
I318
sS'Harrison/Denny-Blaine'
p318
I145
sS'Mattapan'
p319
I211
sS'Vermont Knolls'
p320
I357
sS'North College Park'
p321
I237
sS'Madison Park'
p322
I201
sS'Marina'
p323
I209
sS'Beverlywood'
p324
I33
sS'Greenwood'
p325
I137
sS'Capitol Hill, Lincoln Park'
p326
I49
sS'Agoura Hills'
p327
I2
sS'Lower Queen Anne'
p328
I198
sS'Chinatown'
p329
I64
sS'Mar Vista'
p330
I208
sS'Mann'
p331
I206
sS'Yesler Terrace'
p332
I398
sS'West Covina'
p333
I373
sS'Union Station, Stanton Park, Kingman Park'
p334
I348
sS'Long Beach'
p335
I194
sS'Westwood'
p336
I388
sS'Bay Village'
p337
I22
sS'Pomona'
p338
I270
sS'Ivy City, Arboretum, Trinidad, Carver Langston'
p339
I169
sS'Walnut'
p340
I368
sS'Woodland/Fort Stanton, Garfield Heights, Knox Hill'
p341
I396
sS'Parkside'
p342
I259
sS'Riverview'
p343
I284
sS'Baldwin Park'
p344
I21
sS'Woodland Hills'
p345
I395
sS'Malibu'
p346
I203
sS'Hollywood Hills'
p347
I157
sS'Loft'
p348
I16
sS'Palms'
p349
I255
sS'Koreatown'
p350
I173
sS'Citrus'
p351
I65
sS'Gramercy Park'
p352
I133
sS'Mid-City'
p353
I217
sS'Cypress Park'
p354
I78
sS'South Pasadena'
p355
I322
sS'Cleveland Park, Woodley Park, Massachusetts Avenue Heights, Woodland-Normanstone Terrace'
p356
I67
sS'Castro/Upper Market'
p357
I53
sS'Back Bay'
p358
I19
sS'Bryant'
p359
I45
sS'Hawaiian Gardens'
p360
I147
sS'Arcadia'
p361
I10
sS'Colonial Village, Shepherd Park, North Portal Estates'
p362
I68
sS'Crocker Amazon'
p363
I75
sS'High Point'
p364
I151
sS'Beacon Hill'
p365
I24
sS'Mount Washington'
p366
I228
sS'Alondra Park'
p367
I6
sS'Windermere'
p368
I392
sS'Real Bed'
p369
I4
sS'Fairmount Park'
p370
I116
sS'Genesee'
p371
I125
sS'North Hills'
p372
I240
sS'Winnetka'
p373
I394
sS'Briarcliff'
p374
I38
sS'Glen Park'
p375
I129
sS'Westmont'
p376
I387
sS'Shadow Hills'
p377
I306
sS'Whittier Heights'
p378
I390
sS'Rolling Hills Estates'
p379
I285
sS'North End'
p380
I239
sS'Van Nuys'
p381
I355
sS'Olympic Hills'
p382
I248
sS'Lawton Park'
p383
I188
sS'Artesia'
p384
I13
sS'Airbed'
p385
I0
sS'Noe Valley'
p386
I231
sS'South Diamond Bar'
p387
I317
sS'La Crescenta-Montrose'
p388
I175
sS'Bayview'
p389
I23
sS'Castle'
p390
I7
sS'Harvard Heights'
p391
I146
sS'West Hills'
p392
I376
sS'Pacific Palisades'
p393
I253
sS'Bell'
p394
I26
sS'Pike-Market'
p395
I265
sS'Capitol View, Marshall Heights, Benning Heights'
p396
I50
sS'Veterans Administration'
p397
I361
sS'International District'
p398
I168
sS'Boat'
p399
I3
sS'San Gabriel'
p400
I294
sS'Chatsworth'
p401
I62
sS'Mount Baker'
p402
I227
sS'Carson'
p403
I51
sS'Brentwood'
p404
I37
sS'Montlake'
p405
I226
sS'South Lake Union'
p406
I320
sS'Altadena'
p407
I7
sS'Presidio Heights'
p408
I275
sS'Culver City'
p409
I77
sS'Northridge'
p410
I245
sS'Ramona'
p411
I277
sS'Stevens'
p412
I330
sS'Pacific Heights'
p413
I252
sS'Bradbury'
p414
I36
sS'North Cleveland Park, Forest Hills, Van Ness'
p415
I236
sS'Atlantic'
p416
I15
sS'Sylmar'
p417
I335
sS'Ladera Heights'
p418
I180
sS'La Habra Heights'
p419
I176
sS'Lake Balboa'
p420
I181
sS'San Dimas'
p421
I293
sS'River Terrace, Benning, Greenway, Dupont Park'
p422
I283
sS'Gardena'
p423
I123
sS'Larchmont'
p424
I185
sS'Lomita'
p425
I193
sS'North Michigan Park, Michigan Park, University Heights'
p426
I242
sS'Covina'
p427
I74
sS'South Boston'
p428
I314
sS'Mayflower Village'
p429
I214
sS'Mission'
p430
I220
sS'North Beach/Blue Ridge'
p431
I234
sS'Haller Lake'
p432
I141
sS'Montebello'
p433
I223
s.